; Function Attrs: mustprogress nounwind uwtable
define internal void @_ZN4node9inspector12_GLOBAL__N_19WsHandler8ShutdownEv(ptr noundef nonnull align 8 dereferenceable(57) %this) unnamed_addr #0 align 2 {
entry:
  %tcp_ = getelementptr inbounds i8, ptr %this, i64 16
  %0 = load ptr, ptr %tcp_, align 8
  %cmp.i.not = icmp eq ptr %0, null
  br i1 %cmp.i.not, label %delete.notnull, label %if.then

if.then:                                          ; preds = %entry
  %dispose_ = getelementptr inbounds i8, ptr %this, i64 56
  store i8 1, ptr %dispose_, align 8
  tail call fastcc void @_ZN4node9inspector12_GLOBAL__N_19WsHandler9SendCloseEv(ptr noundef nonnull align 8 dereferenceable(57) %this)
  br label %if.end

delete.notnull:                                   ; preds = %entry
  %vtable = load ptr, ptr %this, align 8
  %vfn = getelementptr inbounds i8, ptr %vtable, i64 56
  %1 = load ptr, ptr %vfn, align 8
  tail call void %1(ptr noundef nonnull align 8 dereferenceable(57) %this) #19
  br label %if.end

if.end:                                           ; preds = %delete.notnull, %if.then
  ret void
}